(lp0
F3.877492904663086
aF1.976914882659912
aF2.0698108673095703
aF2.4189350605010986
aF3.2988390922546387
aF2.825016975402832
aF2.1073429584503174
aF1.9019508361816406
aF2.716434955596924
aF1.75764799118042
aF1.9442009925842285
aF2.252532958984375
aF2.7378909587860107
aF3.349743127822876
aF1.9177100658416748
aF1.7910621166229248
aF2.0028879642486572
aF1.6823639869689941
aF1.606523036956787
aF1.6050548553466797
aF1.6583898067474365
aF4.104838848114014
aF2.5187480449676514
aF2.3303728103637695
aF1.9167039394378662
aF1.7278058528900146
aF1.6943979263305664
aF2.8608450889587402
aF2.189129114151001
aF1.9097650051116943
aF1.629032850265503
aF1.9904930591583252
aF3.5513808727264404
aF2.853593111038208
aF3.0243890285491943
aF3.0072100162506104
aF3.041857957839966
aF2.3894150257110596
aF3.86960506439209
aF1.8008708953857422
aF3.416814088821411
aF1.6086030006408691
aF3.267547845840454
aF2.62267804145813
aF2.1242339611053467
aF1.7363460063934326
aF2.8800079822540283
aF1.932992935180664
aF3.1481258869171143
aF2.138028860092163
aF1.5074739456176758
aF2.2545719146728516
aF3.343885898590088
aF1.8295400142669678
aF2.4434139728546143
aF2.6322669982910156
aF3.0153160095214844
aF1.5135149955749512
aF3.6696979999542236
aF2.8696579933166504
aF2.685633897781372
aF3.419034004211426
aF3.2163121700286865
aF1.644770860671997
aF3.295621156692505
aF3.1375951766967773
aF2.308474063873291
aF2.305544137954712
aF3.0905940532684326
aF3.002495050430298
aF1.7991440296173096
aF2.0758020877838135
aF3.455876111984253
aF1.8969860076904297
aF1.9829769134521484
aF2.646691083908081
aF2.045618772506714
aF1.9808969497680664
aF2.798240900039673
aF2.2525320053100586
aF2.7257649898529053
aF3.6188089847564697
aF2.6092569828033447
aF2.646233081817627
aF3.1689791679382324
aF3.1769039630889893
aF3.4032018184661865
aF3.612910032272339
aF2.677119016647339
aF1.9165921211242676
aF2.5218238830566406
aF2.302823066711426
aF1.8893768787384033
aF2.534752130508423
aF1.8717811107635498
aF2.901592969894409
aF1.3803060054779053
aF1.2438960075378418
aF4.183199882507324
aF2.3497228622436523
aF3.220015048980713
aF1.8916149139404297
aF2.8310751914978027
aF6.072353839874268
aF3.390756130218506
aF2.8480069637298584
aF3.0245461463928223
aF3.0972959995269775
aF7.374281167984009
aF2.920675039291382
aF3.0658509731292725
aF2.9654171466827393
aF2.9426870346069336
aF1.641545057296753
aF2.0594310760498047
aF2.841438055038452
aF3.149117946624756
aF5.2358081340789795
aF6.555769920349121
aF7.4459309577941895
aF5.151496887207031
aF6.452885150909424
aF2.4367079734802246
aF3.3494279384613037
aF2.014158010482788
aF3.638733148574829
aF1.4277520179748535
aF2.268388032913208
aF3.194472074508667
aF3.6357688903808594
aF4.148401975631714
aF1.0594661235809326
aF7.5375988483428955
aF8.64001989364624
aF3.167275905609131
aF1.4019570350646973
aF1.4254050254821777
aF1.4360308647155762
aF2.750430107116699
aF1.5015840530395508
aF4.009114027023315
aF4.652144193649292
aF1.9319219589233398
aF4.6549999713897705
aF3.872990131378174
aF7.244354009628296
aF3.535447120666504
aF2.7841179370880127
aF5.436988830566406
aF3.0923640727996826
aF2.416248083114624
aF1.3143510818481445
aF1.8546440601348877
aF3.5395050048828125
aF3.1274569034576416
aF4.27515983581543
aF1.470923900604248
aF1.4891021251678467
aF1.159559965133667
aF1.359900951385498
aF2.493170976638794
aF3.2049460411071777
aF3.9034039974212646
aF3.304419994354248
aF2.588542938232422
aF1.5331480503082275
aF2.9508349895477295
aF1.184593915939331
aF1.357470989227295
aF7.758311986923218
aF2.6591339111328125
aF3.759456157684326
aF9.444148063659668
aF3.1221818923950195
aF1.538748025894165
aF1.3747589588165283
aF3.4594810009002686
aF7.549196004867554
aF1.592919111251831
aF1.8472669124603271
aF4.436872959136963
aF5.0677080154418945
aF6.880507946014404
aF4.863646984100342
aF8.868853092193604
aF4.0238940715789795
aF2.080519199371338
aF3.8568978309631348
aF3.5550479888916016
aF2.8991479873657227
aF1.654771089553833
aF3.9138619899749756
aF1.8601369857788086
aF1.6824469566345215
aF4.03323221206665
aF1.8365590572357178
aF3.4616191387176514
aF7.121966123580933
aF3.0154170989990234
aF3.5401790142059326
aF2.0742990970611572
aF1.4383912086486816
aF7.560220956802368
aF2.0899150371551514
aF3.143131971359253
aF4.996638059616089
aF2.4872560501098633
aF4.338605165481567
aF3.5518410205841064
aF7.253118991851807
aF9.335041999816895
aF3.683962821960449
aF1.434892177581787
aF9.137187004089355
aF1.1537790298461914
aF5.476634979248047
aF1.3405768871307373
aF8.973925828933716
aF7.492427110671997
aF7.11083197593689
aF9.336431980133057
aF3.747551918029785
aF7.39815092086792
aF7.245069980621338
aF2.629409074783325
aF1.744123935699463
aF1.0343029499053955
aF5.292697906494141
aF1.146003007888794
aF7.563215970993042
aF7.575279951095581
aF8.665689945220947
aF5.987422943115234
aF7.016761064529419
aF3.439116954803467
aF14.780861854553223
aF4.0305609703063965
aF1.5359950065612793
aF10.624093055725098
aF1.342932939529419
aF3.322988986968994
aF1.770117998123169
aF8.484643936157227
aF3.697382926940918
aF1.681563138961792
aF4.324475049972534
aF7.911256790161133
aF7.481109857559204
aF4.471198081970215
aF4.348822116851807
aF3.085005044937134
aF4.964640855789185
aF8.097332954406738
aF7.374614000320435
aF7.445327997207642
aF4.630495071411133
aF4.392579078674316
aF5.94909405708313
aF3.2470169067382812
aF1.6071720123291016
aF1.8503940105438232
aF7.139371871948242
aF5.647218942642212
aF7.541337966918945
aF3.9446909427642822
aF4.043140888214111
aF7.592104911804199
aF7.316974878311157
aF4.058695077896118
aF1.8517069816589355
aF1.4851369857788086
aF3.4396369457244873
aF7.00116491317749
aF3.89621901512146
aF2.6446290016174316
aF6.668166160583496
aF4.22498893737793
aF6.331151008605957
aF6.5217649936676025
aF17.563940048217773
aF6.380650997161865
aF7.287902116775513
aF11.926056861877441
aF1.4487910270690918
aF2.9599671363830566
aF3.2569029331207275
aF1.4299139976501465
aF7.235238075256348
aF10.522175073623657
aF25.059725046157837
aF6.262862920761108
aF6.844910144805908
aF2.7295029163360596
aF20.650886058807373
aF8.631824970245361
aF1.9628031253814697
aF11.603950023651123
aF7.8300042152404785
aF3.6366989612579346
aF2.506740093231201
aF3.4443211555480957
aF6.842154026031494
aF7.960965156555176
aF40.57955718040466
aF5.403893947601318
aF1.8182299137115479
aF17.533459901809692
aF3.9020979404449463
aF9.618149042129517
aF7.747915983200073
aF7.734493017196655
aF31.947559118270874
aF17.144973039627075
aF1.711205005645752
aF1.9000470638275146
aF12.362669944763184
aF7.564509153366089
aF7.565992116928101
aF3.2512941360473633
aF7.5259130001068115
aF3.139353036880493
aF24.239568948745728
aF11.634697914123535
aF14.919128179550171
aF34.72533202171326
aF40.822715044021606
aF29.732798099517822
aF9.03200101852417
aF19.54675579071045
aF7.935775995254517
aF30.506286144256592
aF7.66081690788269
aF4.476853847503662
aF1.367609977722168
aF8.410959005355835
aF7.248546123504639
aF30.036297082901
aF30.963263034820557
aF48.18043303489685
aF8.372997045516968
aF5.240140914916992
aF2.6030349731445312
aF13.136080980300903
aF31.815892934799194
aF8.73819899559021
aF6.677165985107422
aF16.07894992828369
aF41.02836990356445
aF8.129316091537476
aF41.84116005897522
aF24.95316505432129
aF1.4563398361206055
aF41.12280607223511
aF4.659065008163452
aF7.142513990402222
aF8.331670045852661
aF5.472957134246826
aF3.8249869346618652
aF48.14874315261841
aF8.245601892471313
aF4.553900957107544
aF19.73701500892639
aF4.735423803329468
aF8.579447984695435
aF2.5002801418304443
aF2.4257619380950928
aF6.356326103210449
aF41.54087996482849
aF11.227037906646729
aF1.865250825881958
aF2.383855104446411
aF26.030014038085938
aF2.3658499717712402
aF7.003635883331299
aF4.3600029945373535
aF1.3795320987701416
aF32.76990103721619
aF31.811081171035767
aF7.653546094894409
aF1.2618739604949951
aF1.977856159210205
aF11.117089986801147
aF3.3746120929718018
aF8.129924058914185
aF14.022710084915161
aF20.858541011810303
aF2.9029300212860107
aF3.7494192123413086
aF17.136648893356323
aF8.731478929519653
aF3.171143054962158
aF7.655133962631226
aF7.386539936065674
aF8.26888108253479
aF1.6866741180419922
aF1.5633420944213867
aF1.3848650455474854
aF8.57900094985962
aF1.8645658493041992
aF1.4210269451141357
aF1.423224925994873
aF1.8279588222503662
aF7.531466960906982
aF1.8335201740264893
aF2.5553791522979736
aF20.652202129364014
aF3.465505838394165
aF1.1281330585479736
aF7.292817831039429
aF7.53770112991333
aF2.508496046066284
aF6.927627086639404
aF15.018521070480347
aF6.528347969055176
aF1.3894989490509033
aF7.91233491897583
aF21.20542597770691
aF2.4958341121673584
aF2.0222208499908447
aF2.4688830375671387
aF5.588820934295654
aF20.649079084396362
aF5.219602108001709
aF3.4324848651885986
aF5.699596166610718
aF20.00080394744873
aF32.236377000808716
aF6.641631126403809
aF3.8754360675811768
aF1.448707103729248
aF1.133279800415039
aF2.566340923309326
aF2.3253438472747803
aF1.8313701152801514
aF1.9515230655670166
aF1.057539939880371
aF1.3801229000091553
aF1.0608899593353271
aF1.376554012298584
aF1.2803840637207031
aF2.9563357830047607
aF2.888936996459961
aF3.1986169815063477
aF3.116185188293457
aF2.461034059524536
aF1.2638161182403564
aF1.54970383644104
aF2.945557117462158
aF2.9026598930358887
aF7.1016011238098145
aF1.8025710582733154
aF3.182421922683716
aF2.972869873046875
aF2.884065866470337
aF2.973046064376831
aF3.047018051147461
aF3.0668039321899414
aF3.159938097000122
aF3.0515081882476807
aF2.8763411045074463
aF1.5655598640441895
aF3.351140022277832
aF2.97183895111084
aF3.1342740058898926
aF1.4250659942626953
aF2.8432199954986572
aF3.1972479820251465
aF2.9298698902130127
aF2.8393490314483643
aF2.0500690937042236
aF2.259654998779297
aF2.939141035079956
aF2.9132800102233887
aF8.174447059631348
aF2.3062760829925537
aF6.9526989459991455
aF2.2443079948425293
aF2.4269821643829346
aF1.0795950889587402
aF1.4600720405578613
aF1.3573219776153564
aF2.7390620708465576
aF2.6090919971466064
aF2.0369060039520264
aF2.42225980758667
aF1.6091539859771729
aF1.0372319221496582
aF2.4177420139312744
aF3.153714895248413
aF2.23262095451355
aF2.019134998321533
aF1.5363340377807617
aF3.030285120010376
aF2.7302489280700684
aF8.443256855010986
aF5.059316873550415
aF2.5322561264038086
aF1.071061134338379
aF2.8297171592712402
aF3.1702499389648438
aF2.8344180583953857
aF2.7801849842071533
aF2.8514630794525146
aF3.0332090854644775
aF2.0027048587799072
aF3.2310121059417725
aF2.977595090866089
aF2.852707862854004
aF3.16560697555542
aF2.731173038482666
aF2.733180046081543
aF2.904521942138672
aF2.8606598377227783
aF1.7143230438232422
aF3.1706671714782715
aF2.6720011234283447
aF2.8921329975128174
aF2.8687801361083984
aF2.9071691036224365
aF2.908604145050049
aF2.2555930614471436
aF2.303335189819336
aF2.8352439403533936
aF2.0147528648376465
aF2.7076339721679688
aF2.793009042739868
aF2.905742883682251
aF2.5385899543762207
aF2.900620937347412
aF2.1536128520965576
aF2.139803886413574
aF1.8612098693847656
aF2.7306811809539795
aF2.856168031692505
aF2.711639165878296
aF2.9024658203125
aF2.4315648078918457
aF2.8227460384368896
aF2.894791841506958
aF2.324145793914795
aF4.390628814697266
aF2.8422629833221436
aF2.9393961429595947
aF3.025096893310547
aF2.929910898208618
aF2.886770009994507
aF2.841171979904175
aF2.1241848468780518
aF1.1545140743255615
aF2.089337110519409
aF2.546231985092163
aF2.8484010696411133
aF2.9085440635681152
aF2.848763942718506
aF2.606093168258667
aF3.2313451766967773
aF3.3408758640289307
aF2.6409618854522705
aF2.8624660968780518
aF2.862224817276001
aF2.8639349937438965
aF2.855376958847046
aF2.891403913497925
aF2.8909032344818115
aF1.2473690509796143
aF2.8356809616088867
aF3.1381618976593018
aF2.879899024963379
aF2.8483190536499023
aF2.749083995819092
aF2.7549750804901123
aF3.025934934616089
aF2.8178398609161377
aF3.0359320640563965
aF2.1306140422821045
aF3.063953161239624
aF3.1991310119628906
aF3.6749489307403564
aF2.775101900100708
aF2.316758871078491
aF2.5989317893981934
aF3.2043089866638184
aF2.8404130935668945
aF2.839308977127075
aF2.098254919052124
aF3.1994869709014893
aF2.8964459896087646
aF2.7561471462249756
aF2.731145143508911
aF2.662637948989868
aF2.8982760906219482
aF2.8665549755096436
aF2.86427903175354
aF2.891883134841919
aF2.7581958770751953
aF2.879837989807129
aF2.840059995651245
aF2.9264869689941406
aF3.1600430011749268
aF2.9111149311065674
aF2.8998260498046875
aF1.9393088817596436
aF2.6476058959960938
aF2.843744993209839
aF1.5327389240264893
aF2.769514799118042
aF2.904654026031494
aF2.4619929790496826
aF2.757775068283081
aF2.434438943862915
aF2.786550998687744
aF2.794203042984009
aF3.045811891555786
aF2.7950961589813232
aF3.0997822284698486
aF2.9270670413970947
aF1.5414059162139893
aF2.742074966430664
aF2.8556008338928223
aF2.78174090385437
aF2.669363021850586
aF2.685002088546753
aF2.714108943939209
aF2.416149139404297
aF2.689795970916748
aF2.7367351055145264
aF5.387913942337036
aF1.636620044708252
aF2.8404979705810547
aF1.5981969833374023
aF4.548173189163208
aF1.1162610054016113
aF1.3810110092163086
aF4.294499158859253
aF1.371304988861084
aF1.4458250999450684
aF4.7707679271698
aF1.0636770725250244
aF1.9358630180358887
aF5.575357913970947
aF1.9892628192901611
aF7.26674485206604
aF4.943508148193359
aF1.011408805847168
aF1.8432190418243408
aF8.01517915725708
aF2.614912986755371
aF1.1307158470153809
aF1.4757311344146729
aF1.840541124343872
aF4.357676982879639
aF1.7616779804229736
aF7.687312841415405
aF1.521562099456787
aF4.375864028930664
aF3.870471954345703
aF0.9870131015777588
aF1.4032928943634033
aF6.830997943878174
aF1.7834501266479492
aF1.4341230392456055
aF5.067211866378784
aF1.4862949848175049
aF1.4309170246124268
aF1.6271770000457764
aF2.8976449966430664
aF3.8586840629577637
aF4.475023031234741
aF1.1195461750030518
aF1.3887131214141846
aF3.896732807159424
aF1.8314099311828613
aF2.1190521717071533
aF3.7914819717407227
aF4.102118968963623
aF1.3371448516845703
aF5.832366943359375
aF1.2548940181732178
aF1.1813499927520752
aF3.9094038009643555
aF1.6132559776306152
aF4.034485101699829
aF1.625619888305664
aF1.2819669246673584
aF3.9674320220947266
aF1.6656529903411865
aF1.6780660152435303
aF2.8535730838775635
aF3.36114501953125
aF4.062118053436279
aF1.4399640560150146
aF9.420091152191162
aF1.0882339477539062
aF1.2524371147155762
aF8.143393993377686
aF9.163604021072388
aF1.0351130962371826
aF1.0504581928253174
aF1.2013049125671387
aF3.886155843734741
aF7.617115020751953
aF4.259790897369385
aF2.948643922805786
aF2.7577850818634033
aF7.221426010131836
aF2.346130132675171
aF2.5915088653564453
aF3.3157119750976562
aF2.2659049034118652
aF2.1271700859069824
aF1.0676090717315674
aF2.0864858627319336
aF1.107245922088623
aF1.1091339588165283
aF1.8605091571807861
aF1.06209397315979
aF2.0614678859710693
aF1.0807180404663086
aF1.9153690338134766
aF1.46803879737854
aF1.5073859691619873
aF2.24104905128479
aF1.513702154159546
aF1.4612360000610352
aF1.531785011291504
aF1.9681541919708252
aF2.7089929580688477
aF2.7321560382843018
aF5.406790018081665
aF3.057647943496704
aF2.7171108722686768
aF3.0481600761413574
aF2.6342451572418213
aF2.7132890224456787
aF7.190881013870239
aF3.3215880393981934
aF2.181579828262329
aF1.5248899459838867
aF2.7242941856384277
aF2.001878023147583
aF1.6617939472198486
aF1.7113652229309082
aF3.019968032836914
aF2.85031795501709
aF2.5392069816589355
aF2.8366119861602783
aF3.155141830444336
aF3.002779960632324
aF3.089679002761841
aF1.6457149982452393
aF2.205487012863159
aF2.552258014678955
aF1.5173280239105225
aF2.123183012008667
aF1.8373990058898926
aF2.123405933380127
aF2.6407320499420166
aF6.225021839141846
aF1.271251916885376
aF2.5412299633026123
aF0.9843771457672119
aF1.9819281101226807
aF2.018296003341675
aF4.9246039390563965
aF2.0063400268554688
aF2.7392101287841797
aF2.3100779056549072
aF2.726940155029297
aF8.864143133163452
aF2.2360999584198
aF1.078597068786621
aF1.835561990737915
aF9.123242139816284
aF2.0470190048217773
aF1.1636857986450195
aF9.178224086761475
aF1.966874122619629
aF1.39668607711792
aF8.746421098709106
aF2.265293836593628
aF1.5231359004974365
aF2.8007640838623047
aF2.8329570293426514
aF2.981778144836426
aF2.1420371532440186
aF8.203711986541748
aF1.2280499935150146
aF1.350212812423706
aF2.722977876663208
aF2.744188070297241
aF2.8371059894561768
aF8.168500900268555
aF1.8321850299835205
aF2.55503511428833
aF2.7107229232788086
aF2.858994960784912
aF2.8450939655303955
aF8.960731029510498
aF2.015017032623291
aF2.9997799396514893
aF2.754183053970337
aF8.255970001220703
aF1.247847080230713
aF1.4799630641937256
aF9.49634599685669
aF1.156477928161621
aF1.5985801219940186
aF9.159509897232056
aF3.031144857406616
aF1.2563719749450684
aF1.7231738567352295
aF2.244847059249878
aF1.084076166152954
aF2.4110281467437744
aF1.0501558780670166
aF1.8108890056610107
aF2.8260438442230225
aF9.055576086044312
aF1.8690061569213867
aF2.266072988510132
aF1.8604371547698975
aF1.5473661422729492
aF1.8398008346557617
aF2.6435739994049072
aF9.194042205810547
aF1.424260139465332
aF1.219480037689209
aF7.941847801208496
aF1.7068281173706055
aF2.7184669971466064
aF2.1183440685272217
aF1.163789987564087
aF2.0175719261169434
aF2.76499605178833
aF4.380720138549805
aF1.1980090141296387
aF2.8362631797790527
aF9.204815864562988
aF1.9577789306640625
aF2.309018135070801
aF3.1007840633392334
aF2.6394717693328857
aF2.981951951980591
aF2.7966389656066895
aF8.311102151870728
aF1.0242218971252441
aF1.048288106918335
aF8.063652038574219
aF1.2515339851379395
aF4.688956022262573
aF1.5318260192871094
aF4.473449945449829
aF1.226464033126831
aF7.449536085128784
aF1.0475590229034424
aF1.7055060863494873
aF2.824120044708252
aF4.317677974700928
aF0.9903860092163086
aF1.2889289855957031
aF2.910588026046753
aF4.277266025543213
aF1.2126309871673584
aF4.1531829833984375
aF1.1616971492767334
aF8.047928094863892
aF0.9489700794219971
aF4.326698064804077
aF1.0842828750610352
aF2.720649003982544
aF1.8602399826049805
aF2.9201769828796387
aF4.1796510219573975
aF1.7054071426391602
aF4.085552215576172
aF1.1538701057434082
aF1.8214612007141113
aF2.92120099067688
aF5.041914939880371
aF1.1168570518493652
aF4.559751987457275
aF2.2848050594329834
aF6.762065887451172
aF2.36893892288208
aF2.4269778728485107
aF1.1007871627807617
aF2.272784948348999
aF1.0887010097503662
aF1.490095853805542
aF2.2071990966796875
aF2.308323860168457
aF1.1200690269470215
aF1.3734350204467773
aF2.627289056777954
aF2.648160934448242
aF2.292574882507324
aF2.3072760105133057
aF1.1276140213012695
aF2.1422348022460938
aF2.268714189529419
aF1.0873210430145264
aF2.692723035812378
aF4.755741834640503
aF2.425271987915039
aF2.4535470008850098
aF2.246037006378174
aF2.258255958557129
aF2.6121368408203125
aF2.94726300239563
aF4.444939136505127
aF2.3845181465148926
aF6.850693941116333
aF2.469693899154663
aF1.1144731044769287
aF6.125433921813965
aF1.556368112564087
aF2.511277914047241
aF2.6892518997192383
aF4.561213970184326
aF1.2585301399230957
aF4.102036952972412
aF1.3313169479370117
aF4.276373863220215
aF2.2654359340667725
aF2.301949977874756
aF14.85599398612976
aF2.6924281120300293
aF14.922791004180908
aF1.1339550018310547
aF2.516240119934082
aF2.1790401935577393
aF2.79197096824646
aF2.5612058639526367
aF1.4191901683807373
aF2.2706501483917236
aF1.1126351356506348
aF2.255632162094116
aF2.6816840171813965
aF2.128741979598999
aF1.7995378971099854
aF4.462141036987305
aF1.0598299503326416
aF1.1297211647033691
aF1.9245619773864746
aF4.772789001464844
aF1.3005938529968262
aF1.3047618865966797
aF1.1892259120941162
aF5.4399940967559814
aF1.7146739959716797
aF2.7233469486236572
aF4.402868986129761
aF1.5765950679779053
aF2.444844961166382
aF1.1187939643859863
aF1.062391996383667
aF1.048759937286377
aF2.416050910949707
aF1.5258090496063232
aF3.1541059017181396
aF1.0809850692749023
aF4.461138010025024
aF1.1088931560516357
aF2.7166311740875244
aF21.12825298309326
aF4.033895015716553
aF6.96307897567749
aF2.6894500255584717
aF3.829385995864868
aF2.326066017150879
aF0.9327499866485596
aF1.6627790927886963
aF2.668332099914551
aF2.731152057647705
aF1.6629581451416016
aF2.395172119140625
aF1.9218850135803223
aF6.9070680141448975
aF6.922818899154663
aF3.4679479598999023
aF6.842127084732056
aF2.2988600730895996
aF6.562943935394287
aF2.9752120971679688
aF1.4900779724121094
aF3.674514055252075
aF7.044852018356323
aF15.95406198501587
aF1.45802903175354
aF2.2737669944763184
aF6.668209075927734
aF29.428647994995117
aF2.378368854522705
aF1.1942870616912842
aF2.4933669567108154
aF2.172322988510132
aF2.2882049083709717
aF2.718514919281006
aF6.836058139801025
aF7.434551000595093
aF3.873745918273926
aF6.714787006378174
aF6.827700853347778
aF6.886961936950684
aF3.4467339515686035
aF6.065142869949341
aF6.720335006713867
aF2.5576159954071045
aF4.320280075073242
aF2.7359941005706787
aF41.117265939712524
aF7.006108999252319
aF7.124811172485352
aF3.197857141494751
aF2.5465760231018066
aF6.8518688678741455
aF7.15591287612915
aF7.136244058609009
aF5.024602890014648
aF8.668807983398438
aF7.013895034790039
aF7.415678977966309
aF3.827241897583008
aF7.518714904785156
aF7.317396879196167
aF32.123085021972656
aF2.3920929431915283
aF1.3930160999298096
aF2.3711140155792236
aF2.907212972640991
aF2.3238770961761475
aF1.8292930126190186
aF7.211760997772217
aF2.740006923675537
aF3.0587589740753174
aF4.615660905838013
aF6.817399024963379
aF7.006453037261963
aF4.627346038818359
aF7.499138116836548
aF8.755507946014404
aF7.06095814704895
aF3.994046926498413
aF2.8481709957122803
aF3.9967851638793945
aF8.766567945480347
aF8.952253818511963
aF7.466878890991211
aF8.687934875488281
aF8.937972068786621
aF16.372778177261353
aF38.721527099609375
aF1.1339468955993652
aF5.524507999420166
aF39.91565012931824
aF16.608731031417847
aF2.601088047027588
aF2.9204578399658203
aF2.908690929412842
aF8.721220970153809
aF4.62968111038208
aF7.541622161865234
aF6.947543144226074
aF3.6931731700897217
aF8.96033787727356
aF14.799883842468262
aF7.058182001113892
aF3.8612470626831055
aF8.81659197807312
aF9.024490118026733
aF8.783148050308228
aF39.3672661781311
aF7.362429857254028
aF8.757670879364014
aF7.119662046432495
aF13.210789918899536
aF8.728132009506226
aF8.671050071716309
aF40.05139398574829
aF8.66220998764038
aF7.143095016479492
aF10.928445100784302
aF19.952391147613525
aF8.80524492263794
aF7.363667011260986
aF7.2204461097717285
aF11.487510919570923
aF8.993803977966309
aF8.718410015106201
aF9.1775381565094
aF8.961732149124146
aF11.604557991027832
aF20.365694999694824
aF8.98530387878418
aF10.348835945129395
aF8.03806185722351
aF9.10528302192688
aF8.02786922454834
aF4.171717166900635
aF3.1759450435638428
aF4.082869052886963
aF4.000133037567139
aF7.324501037597656
aF8.946805000305176
aF5.03879189491272
aF3.9735920429229736
aF4.029689073562622
aF4.023153066635132
aF9.187617063522339
aF10.66555404663086
aF22.606178045272827
aF17.32260799407959
aF11.933233976364136
aF13.855683088302612
aF29.63796615600586
aF11.516130924224854
aF11.873227834701538
aF7.380641937255859
aF29.897857904434204
aF41.36685013771057
aF7.278314828872681
aF30.35637593269348
aF3.5102479457855225
aF17.427156925201416
aF8.80166506767273
aF20.544818878173828
aF30.472033977508545
aF4.321680068969727
aF11.551321983337402
aF10.928239822387695
aF9.157032012939453
aF7.827696800231934
aF25.320024013519287
aF17.385122060775757
aF12.518227100372314
aF8.840229988098145
aF40.422077894210815
aF9.543832063674927
aF8.902383089065552
aF9.310973882675171
aF9.200488090515137
aF8.5083589553833
aF31.014274835586548
aF30.537953853607178
aF9.16977596282959
aF9.93508791923523
aF21.16227912902832
aF20.525103092193604
aF7.6858179569244385
aF8.720927000045776
aF7.532449960708618
aF4.45451283454895
aF1.717926025390625
aF7.256412982940674
aF7.305943012237549
aF4.9063780307769775
aF11.015798091888428
aF9.057464838027954
aF8.85982894897461
aF11.642848014831543
aF6.425878047943115
aF4.858859062194824
aF1.882612943649292
aF8.867369174957275
aF7.354756832122803
aF12.148535966873169
aF8.867104053497314
aF7.372767925262451
aF1.852679967880249
aF2.2441599369049072
aF1.8659751415252686
aF1.9236729145050049
aF2.728963851928711
aF1.856656789779663
aF4.801727056503296
aF9.03321099281311
aF9.032310962677002
aF9.027220964431763
aF7.269841194152832
aF40.31814980506897
aF7.487294912338257
aF39.796414852142334
aF9.214005947113037
aF7.448818922042847
aF31.457029104232788
aF7.296354055404663
aF8.327189207077026
aF8.44542908668518
aF6.7555601596832275
aF7.023112773895264
aF6.982216119766235
aF7.094390869140625
aF8.986418008804321
aF40.29079604148865
aF7.145304918289185
aF8.686821937561035
aF7.084736108779907
aF7.0771989822387695
aF11.993612051010132
aF7.403195858001709
aF7.548033952713013
aF30.29307508468628
aF8.982892990112305
aF8.25486707687378
aF10.793893814086914
aF20.197954893112183
aF11.389991998672485
aF8.321823120117188
aF8.632025957107544
aF30.630429983139038
aF8.556292057037354
aF8.445629119873047
aF8.21338701248169
aF8.353989124298096
aF8.740617036819458
aF8.49953007698059
aF8.630896091461182
aF8.15897798538208
aF6.424595832824707
aF1.106665849685669
aF8.630874156951904
aF8.432903051376343
aF6.350137948989868
aF7.678318023681641
aF3.6690409183502197
aF8.581146001815796
aF1.151357889175415
aF8.998930931091309
aF8.252285957336426
aF1.0146379470825195
aF41.43451189994812
aF41.743698835372925
aF7.078829050064087
aF39.47732210159302
aF39.342719078063965
aF3.085994005203247
aF9.178274869918823
aF7.2330639362335205
aF7.282891035079956
aF8.756895065307617
aF7.240247011184692
aF8.345815896987915
aF7.4508280754089355
aF8.346646785736084
aF8.788503885269165
aF7.4280619621276855
aF7.7467241287231445
aF8.786665201187134
aF8.535308122634888
aF30.939651012420654
aF3.9337050914764404
aF40.177282094955444
aF11.33089804649353
aF3.917335033416748
aF9.473189115524292
aF9.320702075958252
aF9.38182783126831
aF8.60777997970581
aF8.462503910064697
aF8.259918928146362
aF1.3608460426330566
aF8.553009986877441
aF8.643580198287964
aF5.2708799839019775
aF8.213726997375488
aF8.032177209854126
aF4.413585901260376
aF2.5759119987487793
aF3.761178970336914
aF1.1075639724731445
aF1.8152129650115967
aF8.705442190170288
aF3.583343982696533
aF7.9037580490112305
aF7.4811530113220215
aF30.973158836364746
aF7.445319890975952
aF7.60071587562561
aF7.076181888580322
aF8.785295963287354
aF7.581191778182983
aF5.317771911621094
aF6.948580980300903
aF17.077502012252808
aF3.5425009727478027
aF9.096251964569092
aF9.570840120315552
aF8.650331020355225
aF8.543668031692505
aF1.1427910327911377
aF23.433297872543335
aF7.503432035446167
aF37.426565170288086
aF1.2077829837799072
aF1.2431418895721436
aF3.4033279418945312
aF7.61393404006958
aF8.142006874084473
aF31.920102834701538
aF7.69753098487854
aF7.7589499950408936
aF30.404919862747192
aF7.870500087738037
aF7.693182945251465
aF7.677312850952148
aF9.157292127609253
aF9.132915019989014
aF4.553095817565918
aF1.2497591972351074
aF10.391008853912354
aF9.240661859512329
aF2.2693212032318115
aF1.5987780094146729
aF7.801037073135376
aF9.528268814086914
aF10.274760961532593
aF8.00532603263855
aF4.50245213508606
aF8.843045949935913
aF6.401562929153442
aF1.4664011001586914
aF9.097268104553223
aF1.408128023147583
aF1.547961950302124
aF1.4881949424743652
aF1.3676280975341797
aF2.596137046813965
aF1.4181089401245117
aF1.3810830116271973
aF2.771136999130249
aF8.294605016708374
aF2.354391098022461
aF8.529184103012085
aF1.2568230628967285
aF1.9850389957427979
aF25.270542860031128
aF1.4495069980621338
aF7.838911056518555
aF9.394084930419922
aF9.385711908340454
aF2.855478048324585
aF1.297018051147461
aF40.44573211669922
aF16.348442792892456
aF1.3562660217285156
aF42.724231004714966
aF4.182420015335083
aF9.284377813339233
aF26.378969192504883
aF1.5624639987945557
aF8.727849006652832
aF34.96883201599121
aF8.536580085754395
aF10.45044493675232
aF4.53397011756897
aF21.09530210494995
aF16.60105299949646
aF7.0177998542785645
aF5.923627853393555
aF20.800668954849243
aF2.144498825073242
aF13.253789901733398
aF14.299383878707886
aF32.914477825164795
aF19.363476037979126
aF31.89738702774048
aF9.208333969116211
aF9.322281122207642
aF9.233912944793701
aF2.609600067138672
aF8.917590141296387
aF1.3509278297424316
aF8.854270935058594
aF3.949394941329956
aF8.184777021408081
aF1.3556909561157227
aF2.7318570613861084
aF1.6708450317382812
aF1.6316189765930176
aF3.6572201251983643
aF1.0454678535461426
aF4.673770904541016
aF8.304157972335815
aF6.167601823806763
aF7.961555004119873
aF8.49019718170166
aF3.846076011657715
aF3.988521099090576
aF11.263900995254517
aF13.021944999694824
aF18.12024688720703
aF8.518106937408447
aF21.205005168914795
aF41.89616918563843
aF6.469103097915649
aF9.472185850143433
aF2.7103500366210938
aF2.598397970199585
aF2.576997995376587
aF3.5277910232543945
aF8.891170024871826
aF29.291231870651245
aF3.902223825454712
aF8.103819131851196
aF8.904104948043823
aF7.215784072875977
aF2.022783041000366
aF2.4050300121307373
aF17.379306077957153
aF7.421645164489746
aF39.463403940200806
aF4.861518144607544
aF2.252676010131836
aF7.844738960266113
aF2.377819061279297
aF2.4610848426818848
aF8.386043071746826
aF1.9764049053192139
aF13.777124166488647
aF8.431299924850464
aF1.970932960510254
aF27.276323080062866
aF6.061624050140381
aF2.2598440647125244
aF2.0135650634765625
aF4.415676832199097
aF4.511791944503784
aF5.532128095626831
aF2.3696110248565674
aF8.09132194519043
aF2.1855599880218506
aF1.6560750007629395
aF4.417473077774048
aF1.4854891300201416
aF4.421586036682129
aF4.0696868896484375
aF2.5601418018341064
aF1.389436960220337
aF4.741711139678955
aF2.4158928394317627
aF1.8536279201507568
aF1.959630012512207
aF1.4452049732208252
aF6.903108835220337
aF2.172060012817383
aF1.851654052734375
aF2.222865104675293
aF2.4066479206085205
aF2.316620111465454
aF1.6810688972473145
aF4.519845962524414
aF2.004328966140747
aF1.9964649677276611
aF1.519287109375
aF1.646618127822876
aF4.36918306350708
aF2.2596240043640137
aF1.1631689071655273
aF1.6005451679229736
aF4.637033939361572
aF1.4897019863128662
aF2.0181519985198975
aF1.4596211910247803
aF1.420624017715454
aF4.292487144470215
aF7.198554992675781
aF6.878422975540161
aF2.2955760955810547
aF4.628206014633179
aF2.1681859493255615
aF4.1875669956207275
aF2.095517873764038
aF3.627941131591797
aF1.099740982055664
aF3.6586170196533203
aF1.0942800045013428
aF2.0602259635925293
aF3.291472911834717
aF2.393710136413574
aF2.2924630641937256
aF2.381279945373535
aF3.754417896270752
aF2.2188539505004883
aF4.583558082580566
aF8.584474086761475
aF2.027773141860962
aF1.9983348846435547
aF2.2658350467681885
aF4.390285968780518
aF1.8786509037017822
aF2.2654449939727783
aF4.249905824661255
aF4.038470983505249
aF1.433838129043579
aF4.255640983581543
aF2.499108076095581
aF2.179708957672119
aF2.424144983291626
aF3.024791955947876
aF2.4524688720703125
aF1.970594882965088
aF7.7244720458984375
aF2.0179851055145264
aF7.597462892532349
aF4.129521131515503
aF2.49653697013855
aF1.9789860248565674
aF1.4561371803283691
aF2.612833023071289
aF2.413058042526245
aF7.620894193649292
aF2.050548791885376
aF1.9304759502410889
aF2.126413106918335
aF2.3941900730133057
aF2.0815489292144775
aF2.3444130420684814
aF2.7869579792022705
aF2.298900842666626
aF7.570868968963623
aF6.304764986038208
aF2.4533960819244385
aF1.9783849716186523
aF2.4869019985198975
aF7.193964004516602
aF4.259014844894409
aF1.88814115524292
aF7.031033992767334
aF3.894044876098633
aF2.3504281044006348
aF2.0021700859069824
aF2.0916850566864014
aF2.4072699546813965
aF1.9758641719818115
aF5.2047438621521
aF3.2065670490264893
aF1.2220349311828613
aF1.1199560165405273
aF1.9438118934631348
aF5.1232099533081055
aF2.10493803024292
aF6.830995082855225
aF2.3321831226348877
aF2.477293014526367
aF2.590108871459961
aF1.8285040855407715
aF2.5013599395751953
aF3.9582698345184326
aF2.2179441452026367
aF2.169271945953369
aF2.0464930534362793
aF2.441477060317993
aF7.100028038024902
aF1.087602138519287
aF1.3270721435546875
aF8.417969942092896
aF7.049812078475952
aF2.2376749515533447
aF1.9924731254577637
aF1.5772120952606201
aF2.000782012939453
aF1.8815181255340576
aF1.9513840675354004
aF2.3075180053710938
aF2.008826971054077
aF1.1976449489593506
aF3.368483066558838
aF2.426748037338257
aF4.6938700675964355
aF2.348294973373413
aF2.174453020095825
aF2.0137979984283447
aF1.9244921207427979
aF1.8453280925750732
aF3.1882729530334473
aF2.6579082012176514
aF2.2757599353790283
aF1.171463966369629
aF3.3576440811157227
aF2.9586448669433594
aF2.0285708904266357
aF2.114743947982788
aF2.3807549476623535
aF2.437999963760376
aF2.437303066253662
aF2.157788038253784
aF2.9186511039733887
aF2.2859230041503906
aF3.047427177429199
aF2.7585089206695557
aF2.2722229957580566
aF3.3538780212402344
aF5.950866937637329
aF3.983006000518799
aF3.8526220321655273
aF3.9709360599517822
aF1.932800054550171
aF2.4290637969970703
aF3.033945083618164
aF2.065955877304077
aF2.870278835296631
aF1.1189451217651367
aF2.381850004196167
aF2.6826350688934326
aF1.0582048892974854
aF2.020972967147827
aF2.3897430896759033
aF4.165114164352417
aF3.146228790283203
aF6.824671030044556
aF2.1622629165649414
aF2.440803050994873
aF3.027168035507202
aF1.0191071033477783
aF1.9697279930114746
aF2.9596660137176514
aF2.955103874206543
aF1.9487760066986084
aF2.539238929748535
aF2.694432020187378
aF2.2530858516693115
aF2.2455599308013916
aF2.2573800086975098
aF2.37909197807312
aF2.5463740825653076
aF1.1171350479125977
aF2.648110866546631
aF1.2234699726104736
aF2.9646310806274414
aF1.947157859802246
aF2.6399929523468018
aF21.060108184814453
aF8.541585922241211
aF25.033822059631348
aF2.477008104324341
aF2.264508008956909
aF43.62342309951782
aF1.0847280025482178
aF1.978907823562622
aF2.263690948486328
aF1.0913019180297852
aF2.2501299381256104
aF2.0429937839508057
aF1.9442429542541504
aF2.2678120136260986
aF2.2371091842651367
aF1.9510939121246338
aF4.871004104614258
aF4.045475006103516
aF7.078459978103638
aF2.4073660373687744
aF2.2673630714416504
aF2.328089952468872
aF1.926609992980957
aF2.1229870319366455
aF1.8474559783935547
aF2.1541078090667725
aF2.2239930629730225
aF2.1332569122314453
aF1.7825391292572021
aF1.9078779220581055
aF2.536613941192627
aF2.234858989715576
aF1.88242506980896
aF2.159306049346924
aF1.6550118923187256
aF1.7639479637145996
aF1.9902350902557373
aF1.8442120552062988
aF1.8403501510620117
aF1.932739019393921
aF2.227329969406128
aF1.8528029918670654
aF2.4942641258239746
aF2.4233880043029785
aF2.2277300357818604
aF1.5872550010681152
aF2.1289989948272705
aF2.0042059421539307
aF2.132722854614258
aF1.8518669605255127
aF1.3643379211425781
aF1.8408429622650146
aF2.1514649391174316
aF2.1315481662750244
aF3.2460429668426514
aF2.263749122619629
aF2.4653170108795166
aF1.8543651103973389
aF1.818708896636963
aF2.3365139961242676
aF2.0128610134124756
aF4.3079118728637695
aF2.5529868602752686
aF2.392047882080078
aF1.8181781768798828
aF1.8512098789215088
aF2.5393998622894287
aF1.8277790546417236
aF7.8502349853515625
aF2.1308481693267822
aF1.7586960792541504
aF1.8662009239196777
aF8.845144987106323
aF1.93959379196167
aF2.4333019256591797
aF1.890937089920044
aF6.514877080917358
aF2.317056179046631
aF2.2028310298919678
aF3.332768201828003
aF1.4718568325042725
aF2.3224411010742188
aF20.215004920959473
aF16.83943009376526
aF4.255831003189087
aF1.9469349384307861
aF8.459173917770386
aF1.8307960033416748
aF1.9263570308685303
aF2.455016851425171
aF2.377162218093872
aF1.6530780792236328
aF4.183996915817261
aF1.593134880065918
aF2.2991960048675537
aF2.396250009536743
aF2.5376951694488525
aF2.354710102081299
aF2.377257823944092
aF2.4895479679107666
aF2.384634017944336
aF2.4361419677734375
aF1.9520690441131592
aF2.498257875442505
aF5.075942039489746
aF4.294474124908447
aF1.7747609615325928
aF4.360661029815674
aF17.734102964401245
aF17.497936010360718
aF3.750169038772583
aF2.156981945037842
aF1.8219239711761475
aF2.137199878692627
aF3.950516939163208
aF1.9584150314331055
aF1.9417839050292969
aF4.4286699295043945
aF6.832624912261963
aF2.3024039268493652
aF4.91281795501709
aF1.5295748710632324
aF5.042946100234985
aF15.319350004196167
aF24.777264833450317
aF4.276510953903198
aF1.64044189453125
aF1.6595568656921387
aF1.632917881011963
aF1.7699170112609863
aF3.945072889328003
aF2.260388135910034
aF2.500817060470581
aF2.082469940185547
aF2.024841070175171
aF5.102005958557129
aF1.7137901782989502
aF2.142542839050293
aF11.725864887237549
aF1.9488451480865479
aF2.330703020095825
aF2.0613420009613037
aF2.27323579788208
aF4.43678092956543
aF4.180233001708984
aF3.2361679077148438
aF2.0310890674591064
aF1.9240679740905762
aF1.9876399040222168
aF4.527782917022705
aF4.740729808807373
aF2.271056890487671
aF4.442943096160889
aF4.857207775115967
aF4.471719026565552
aF2.286410093307495
aF2.040982961654663
aF2.1353819370269775
aF7.5343029499053955
aF1.8317279815673828
aF2.0107369422912598
aF1.9463040828704834
aF4.25337290763855
aF2.0166900157928467
aF5.753848075866699
aF2.0025649070739746
aF2.3074169158935547
aF1.9763309955596924
aF1.9911918640136719
aF6.849091053009033
aF6.915028095245361
aF2.272829055786133
aF1.9823129177093506
aF1.970189094543457
aF2.214293956756592
aF1.7773709297180176
aF3.8957560062408447
aF1.547847032546997
aF2.0282769203186035
aF2.205359935760498
aF2.1344099044799805
aF1.7898831367492676
aF4.521798849105835
aF2.089647054672241
aF2.0093719959259033
aF2.0541040897369385
aF2.1116278171539307
aF3.094758987426758
aF6.853114128112793
aF6.708652973175049
aF6.821758985519409
aF2.2209320068359375
aF4.144128084182739
aF2.0448358058929443
aF1.891113042831421
aF8.130038022994995
aF2.261686086654663
aF2.251236915588379
aF1.8400402069091797
aF2.3830721378326416
aF1.9953598976135254
aF1.82551908493042
aF1.9202749729156494
aF2.2512869834899902
aF12.277882099151611
aF2.3604230880737305
aF1.8691270351409912
aF1.8275179862976074
aF2.2438549995422363
aF1.594477891921997
aF1.525447130203247
aF2.4268009662628174
aF6.009688138961792
aF1.8954088687896729
aF1.8318400382995605
aF2.364288806915283
aF2.314692974090576
aF2.029778003692627
aF1.2519221305847168
aF7.912938833236694
aF1.7602598667144775
aF1.5958359241485596
aF1.191519021987915
aF1.262596845626831
aF4.503806829452515
aF2.241852045059204
aF1.7680449485778809
aF1.3464469909667969
aF2.32771897315979
aF4.024751901626587
aF1.9795918464660645
aF1.6750061511993408
aF1.962433099746704
aF4.33605694770813
aF1.8209168910980225
aF1.4504609107971191
aF3.380009889602661
aF2.4016242027282715
aF1.9015421867370605
aF4.092005014419556
aF1.8737738132476807
aF3.4554288387298584
aF2.2061970233917236
aF1.526183843612671
aF4.283100128173828
aF2.3906638622283936
aF1.5289058685302734
aF3.1719000339508057
aF1.2423861026763916
aF3.8447558879852295
aF4.518754959106445
aF1.3818469047546387
aF2.4172399044036865
aF10.218622922897339
aF2.5599851608276367
aF1.9647188186645508
aF6.719768047332764
aF2.327363967895508
aF1.859489917755127
aF2.270004987716675
aF7.420791149139404
aF2.0554888248443604
aF2.4385898113250732
aF1.9032480716705322
aF3.1495919227600098
aF2.1364781856536865
aF2.457875967025757
aF2.1365699768066406
aF3.7586989402770996
aF1.5945539474487305
aF3.861024856567383
aF1.7041800022125244
aF1.0428729057312012
aF1.0487420558929443
aF4.919939994812012
aF1.2555689811706543
aF1.3576898574829102
aF1.240083932876587
aF3.167800188064575
aF2.0186729431152344
aF1.9360520839691162
aF5.1761229038238525
aF1.3617830276489258
aF1.1449649333953857
aF1.966935157775879
aF3.325139045715332
aF3.6869449615478516
aF1.422968864440918
aF3.9848508834838867
aF2.117671012878418
aF1.1428189277648926
aF1.2865049839019775
aF2.743000030517578
aF2.618889808654785
aF1.856006145477295
aF1.9710240364074707
aF1.6004068851470947
aF7.598417043685913
aF1.5990560054779053
aF2.433367967605591
aF1.6304969787597656
aF3.4788990020751953
aF4.9210450649261475
aF3.4094550609588623
aF1.4278180599212646
aF3.7998290061950684
aF2.8580269813537598
aF1.9088449478149414
aF7.330974102020264
aF2.2814090251922607
aF2.21395206451416
aF3.3445191383361816
aF4.686309099197388
aF2.3382019996643066
aF2.2965569496154785
aF2.0216360092163086
aF2.0174038410186768
aF2.3780431747436523
aF3.2122039794921875
aF1.9746510982513428
aF2.3328750133514404
aF1.8459811210632324
aF2.237884998321533
aF2.4208531379699707
aF2.9507570266723633
aF1.1984801292419434
aF1.4839980602264404
aF2.4220659732818604
aF2.4657890796661377
aF1.3294329643249512
aF2.543447971343994
aF2.660024881362915
aF2.918447971343994
aF3.11824107170105
aF2.361269950866699
aF16.452871084213257
aF4.396180152893066
aF2.385864019393921
aF2.2115249633789062
aF2.382849931716919
aF2.386159896850586
aF1.9073820114135742
aF3.164552927017212
aF2.3790788650512695
aF2.0177669525146484
aF2.4391729831695557
aF2.5282399654388428
aF3.064723014831543
aF2.163641929626465
aF3.0021839141845703
aF2.4336071014404297
aF2.0447540283203125
aF2.138692855834961
aF1.9145870208740234
aF4.97485613822937
aF4.729954957962036
aF2.125138998031616
aF4.127374887466431
aF1.8735849857330322
aF2.073301076889038
aF7.72680401802063
aF2.659670114517212
aF1.9283220767974854
aF2.031843900680542
aF10.20942497253418
aF2.4958200454711914
aF1.6757960319519043
aF4.646994113922119
aF4.1086390018463135
aF2.528217077255249
aF17.380649089813232
aF2.505491018295288
aF2.167156934738159
aF4.218151092529297
aF1.9188599586486816
aF15.932251930236816
aF2.4641380310058594
aF1.7361350059509277
aF2.067113161087036
aF2.3725321292877197
aF30.596694946289062
aF6.900307893753052
aF2.2448179721832275
aF1.5467150211334229
aF1.460090160369873
aF1.7460858821868896
aF1.8934080600738525
aF2.1238420009613037
aF4.52025294303894
aF15.359726905822754
aF47.95000505447388
aF1.1554880142211914
aF1.5769789218902588
aF1.5686531066894531
aF1.6785900592803955
aF2.3261380195617676
aF6.760619878768921
aF2.305051803588867
aF7.6494340896606445
aF13.702854871749878
aF2.53666090965271
aF2.4261839389801025
aF10.10472583770752
aF7.013699054718018
aF3.429774045944214
aF2.4712140560150146
aF6.876565217971802
aF6.091727018356323
aF10.640429973602295
aF6.892886161804199
aF2.6033549308776855
aF2.2763118743896484
aF7.095754146575928
aF4.622298002243042
aF14.757170915603638
aF15.546072006225586
aF5.338979005813599
aF1.804537057876587
aF8.438674926757812
aF2.0348520278930664
aF1.7619121074676514
aF5.6217570304870605
aF2.318351984024048
aF2.1255970001220703
aF7.646424055099487
aF2.0457379817962646
aF1.9006860256195068
aF2.0232889652252197
aF3.6681060791015625
aF2.1919500827789307
aF2.283504009246826
aF2.1030328273773193
aF4.743927955627441
aF2.2589919567108154
aF1.7366390228271484
aF7.731312036514282
aF2.4081039428710938
aF2.08158802986145
aF21.26520800590515
aF2.188694953918457
aF1.8787848949432373
aF2.0308821201324463
aF1.951997995376587
aF1.0183608531951904
aF16.231482982635498
aF5.9401891231536865
aF2.3518497943878174
aF1.8302240371704102
aF2.0116591453552246
aF5.087188005447388
aF2.341885805130005
aF15.554385900497437
aF2.1381640434265137
aF6.898854970932007
aF2.2162129878997803
aF2.5000500679016113
aF2.228837013244629
aF2.1362099647521973
aF10.889055013656616
aF2.4600260257720947
aF2.014143943786621
aF4.780707836151123
aF10.66998815536499
aF2.689462900161743
aF1.9308760166168213
aF17.23233389854431
aF10.263202905654907
aF2.1569418907165527
aF1.4169108867645264
aF1.9784700870513916
aF1.8873190879821777
aF15.114466190338135
aF1.7184078693389893
aF2.0247581005096436
aF2.0097060203552246
aF5.409000873565674
aF2.3965718746185303
aF6.970850944519043
aF2.3841612339019775
aF6.8709681034088135
aF2.1833949089050293
aF1.6303298473358154
aF7.011943101882935
aF16.109954118728638
aF17.210273027420044
aF2.440100908279419
aF1.8629200458526611
aF10.634207963943481
aF2.6069722175598145
aF2.0302019119262695
aF1.8593120574951172
aF2.00929594039917
aF1.1577529907226562
aF9.057312965393066
aF2.3798410892486572
aF1.9401650428771973
aF12.20923113822937
aF2.2788219451904297
aF2.361224889755249
aF10.003647089004517
aF8.271039009094238
aF2.302544116973877
aF1.647697925567627
aF2.292570114135742
aF2.0914859771728516
aF1.8758058547973633
aF6.43225622177124
aF1.9380078315734863
aF1.902878999710083
aF5.394191026687622
aF2.394773006439209
aF2.061336040496826
aF1.5009310245513916
aF7.216560125350952
aF2.238509178161621
aF2.083617925643921
aF2.2027580738067627
aF1.945746898651123
aF4.193000793457031
aF2.42179012298584
aF2.5601470470428467
aF1.901611089706421
aF4.137099981307983
aF1.822066068649292
aF1.9779260158538818
aF4.864413022994995
aF8.116412878036499
aF2.1516060829162598
aF1.6333909034729004
aF1.4701650142669678
aF2.393341064453125
aF4.553510904312134
aF1.7796368598937988
aF7.87652587890625
aF1.5864219665527344
aF2.4240400791168213
aF2.2242319583892822
aF1.989232063293457
aF7.754361867904663
aF2.05192494392395
aF1.9605870246887207
aF2.5210189819335938
aF2.0469541549682617
aF2.1052138805389404
aF6.925755023956299
aF2.4864439964294434
aF2.381040096282959
aF4.313752889633179
aF1.9257299900054932
aF10.044708967208862
aF9.859368085861206
aF2.0489258766174316
aF1.7306268215179443
aF1.937575101852417
aF4.406341791152954
aF2.226922035217285
aF1.9878020286560059
aF2.1195321083068848
aF5.667396068572998
aF2.371454954147339
aF4.3541741371154785
aF7.044680833816528
aF2.476738929748535
aF2.0879499912261963
aF2.467639923095703
aF10.999230146408081
aF8.363910913467407
aF5.9795849323272705
aF2.565303087234497
aF6.078979015350342
aF2.6188549995422363
aF2.590095043182373
aF2.017961025238037
aF2.3499341011047363
aF2.4372940063476562
aF2.4194140434265137
aF7.13409686088562
aF2.2780098915100098
aF1.1118991374969482
aF1.050339937210083
aF1.302196979522705
aF5.736011981964111
aF2.3794751167297363
aF6.733229160308838
aF2.3250160217285156
aF6.83440899848938
aF6.8421220779418945
aF17.433534145355225
aF8.556383848190308
aF8.534077882766724
aF5.5307698249816895
aF5.538593053817749
aF5.82749605178833
aF8.759456872940063
aF10.622902154922485
aF1.841921091079712
aF13.512571096420288
aF6.500463962554932
aF2.359429121017456
aF17.149134874343872
aF4.520256996154785
aF17.79706311225891
aF31.964727878570557
aF9.65748405456543
aF2.1459720134735107
aF1.9322381019592285
aF1.427083969116211
aF2.110635995864868
aF1.4715080261230469
aF1.7686169147491455
aF1.2947440147399902
aF1.9034249782562256
aF5.139218091964722
aF12.623625993728638
aF1.3415420055389404
aF16.495795011520386
aF6.076359987258911
aF1.4367899894714355
aF1.4089829921722412
aF2.33821702003479
aF1.8374760150909424
aF8.544120073318481
aF1.7705800533294678
aF1.0939438343048096
aF1.061492919921875
aF1.0984210968017578
aF1.3071298599243164
aF3.099776029586792
aF3.1431639194488525
aF3.207298994064331
aF4.121351957321167
aF2.366827964782715
aF2.2491838932037354
aF2.1510322093963623
aF1.394968032836914
aF3.988269805908203
aF4.478276014328003
aF2.237107992172241
aF2.3643441200256348
aF4.307188987731934
aF4.1616370677948
aF1.8985710144042969
aF7.579857110977173
aF2.4497480392456055
aF1.7826130390167236
aF5.833949089050293
aF2.471290111541748
aF8.420927047729492
aF1.8403680324554443
aF6.11665678024292
aF2.4155120849609375
aF2.0111300945281982
aF7.02853798866272
aF4.518260955810547
aF15.282308101654053
aF16.82471990585327
aF4.344247817993164
aF2.1830451488494873
aF6.957490921020508
aF6.314662933349609
aF2.4283809661865234
aF2.28399395942688
aF7.842792987823486
aF7.443480968475342
aF2.1747889518737793
aF9.74888801574707
aF8.550776958465576
aF2.357048988342285
aF2.221764087677002
aF1.0843920707702637
aF6.948035955429077
aF21.321283102035522
aF5.302646160125732
aF5.821521997451782
aF8.32800817489624
aF3.6456069946289062
aF2.5451500415802
aF5.539880037307739
aF5.4230828285217285
aF1.1119508743286133
aF6.910665035247803
aF14.731467008590698
aF4.109438896179199
aF12.234230041503906
aF4.460919141769409
aF1.0770959854125977
aF21.195098876953125
aF2.511564016342163
aF1.7925751209259033
aF1.1685190200805664
aF1.9905190467834473
aF2.0227928161621094
aF10.683164119720459
aF7.864748001098633
aF1.461759090423584
aF1.8122730255126953
aF4.4623870849609375
aF8.557903051376343
aF1.0528662204742432
aF4.912277936935425
aF2.7992429733276367
aF10.41687297821045
aF2.6787071228027344
aF2.2676169872283936
aF8.477582216262817
aF2.307588815689087
aF8.740192890167236
aF2.391862154006958
aF6.302808046340942
aF4.146960020065308
aF1.1398959159851074
aF1.338252067565918
aF10.813506126403809
aF7.003493070602417
aF8.841370820999146
aF2.295905113220215
aF10.39328408241272
aF5.003810882568359
aF2.4927589893341064
aF41.08972692489624
aF7.805727005004883
aF6.2260191440582275
aF5.011368036270142
aF25.6313419342041
aF6.131880044937134
aF3.6727890968322754
aF2.0981740951538086
aF2.3547301292419434
aF4.033436059951782
aF1.1165201663970947
aF6.183016061782837
aF3.8932909965515137
aF1.1376368999481201
aF11.743585109710693
aF1.9512290954589844
aF1.244339942932129
aF8.77195692062378
aF1.9402320384979248
aF1.8947179317474365
aF5.719524145126343
aF5.857203006744385
aF2.0601000785827637
aF1.3840148448944092
aF1.6893999576568604
aF10.9270498752594
aF2.2696731090545654
aF4.035306930541992
aF1.4094758033752441
aF2.4973621368408203
aF2.0362038612365723
aF1.3725810050964355
aF1.52652907371521
aF1.824709177017212
aF1.8409678936004639
aF7.612682104110718
aF2.4485411643981934
aF2.0775461196899414
aF2.3034989833831787
aF1.7213671207427979
aF1.4349360466003418
aF1.7603518962860107
aF1.609346866607666
aF1.5558109283447266
aF1.34489107131958
aF1.8264942169189453
aF1.248776912689209
aF1.146941900253296
aF3.9798331260681152
aF1.2570359706878662
aF3.8993000984191895
aF2.332979202270508
aF2.2530808448791504
aF4.422235012054443
aF2.3396170139312744
aF7.746874094009399
aF2.1497678756713867
aF7.716509103775024
aF2.2322099208831787
aF2.4370150566101074
aF1.8309822082519531
aF8.550745964050293
aF2.015428066253662
aF2.0050790309906006
aF7.8553149700164795
aF2.0655150413513184
aF1.34773588180542
aF1.3435049057006836
aF1.700972080230713
aF1.467885971069336
aF8.323041200637817
aF1.885915994644165
aF1.793931007385254
aF2.051969051361084
aF7.437961101531982
aF2.8097071647644043
aF2.0447189807891846
aF1.4960150718688965
aF1.682347059249878
aF5.4575629234313965
aF2.4451069831848145
aF1.4764950275421143
aF4.633721113204956
aF1.8732900619506836
aF1.8987360000610352
aF3.9917309284210205
aF2.086616039276123
aF1.4865601062774658
aF7.594157934188843
aF1.2817950248718262
aF4.223828077316284
aF1.9989910125732422
aF4.537783145904541
aF13.378712177276611
aF7.093790769577026
aF3.850776195526123
aF35.075188875198364
aF1.9124410152435303
aF1.4910399913787842
aF1.4192991256713867
aF1.4217748641967773
aF4.124612092971802
aF5.281364917755127
aF2.230393886566162
aF10.682158946990967
aF2.5261850357055664
aF9.87231183052063
aF6.896721124649048
aF2.41607403755188
aF1.638875961303711
aF1.4089791774749756
aF4.2554709911346436
aF1.2297980785369873
aF1.2048389911651611
aF3.3655099868774414
aF4.4580419063568115
aF1.1470720767974854
aF4.208136081695557
aF3.8354640007019043
aF5.414941072463989
aF7.7604820728302
aF17.219202995300293
aF31.81831693649292
aF8.290682077407837
aF1.1065540313720703
aF1.4423949718475342
aF1.2386078834533691
aF17.00599503517151
aF1.3812429904937744
aF2.386539936065674
aF4.4964439868927
aF23.753714084625244
aF1.935617208480835
aF4.762049913406372
aF4.154802083969116
aF1.1910650730133057
aF6.939980983734131
aF8.166240930557251
aF2.135877847671509
aF8.238842010498047
aF2.4313199520111084
aF4.193553924560547
aF4.161984920501709
aF2.565556049346924
aF4.404303073883057
aF1.7218730449676514
aF15.706133842468262
aF1.941256046295166
aF4.326225996017456
aF2.336928129196167
aF4.517550945281982
aF8.567704200744629
aF4.429050922393799
aF5.1153459548950195
aF2.565551996231079
aF2.2820651531219482
aF3.8545119762420654
aF11.052839994430542
aF2.160799980163574
aF1.6410551071166992
aF3.8955018520355225
aF4.278418064117432
aF2.1181480884552
aF1.7719471454620361
aF4.642881870269775
aF10.71427297592163
aF2.414541006088257
aF1.959022045135498
aF12.198158979415894
aF4.155573129653931
aF4.440611839294434
aF7.7379209995269775
aF7.6952478885650635
aF2.0745298862457275
aF1.682811975479126
aF4.391861915588379
aF2.3479599952697754
aF2.1772608757019043
aF4.5651772022247314
aF1.6517210006713867
aF5.696346998214722
aF8.747924089431763
aF1.9705841541290283
aF2.3189899921417236
aF7.287186861038208
aF10.676053047180176
aF2.708519220352173
aF4.349808931350708
aF1.6963331699371338
aF10.296679019927979
aF4.330976963043213
aF1.759695053100586
aF1.9985220432281494
aF1.836561918258667
aF2.7360260486602783
aF1.8754589557647705
aF7.358366012573242
aF2.0032620429992676
aF2.249566078186035
aF1.8382649421691895
aF2.29201602935791
aF2.140874147415161
aF1.50816011428833
aF5.964099884033203
aF2.297386884689331
aF2.2519469261169434
aF1.9925038814544678
aF2.2537930011749268
aF1.8243129253387451
aF2.3516650199890137
aF2.092931032180786
aF8.676959991455078
aF1.9127490520477295
aF2.3672220706939697
aF2.168144941329956
aF4.3009819984436035
aF2.285839080810547
aF1.6635890007019043
aF7.62919020652771
aF1.4876139163970947
aF2.0154340267181396
aF2.074769973754883
aF1.2357001304626465
aF3.877547025680542
aF1.2070879936218262
aF1.1542041301727295
aF2.2100720405578613
aF1.2962090969085693
aF1.18141508102417
aF3.2871479988098145
aF4.308625936508179
aF1.8596320152282715
aF2.3397698402404785
aF3.803968906402588
aF2.0254499912261963
aF2.893839120864868
aF3.77675199508667
aF2.3229758739471436
aF10.471961975097656
aF2.4293479919433594
aF2.397291898727417
aF13.26528811454773
aF1.6740667819976807
aF1.5012969970703125
aF2.3151140213012695
aF1.9153289794921875
aF2.5973949432373047
aF1.4285838603973389
aF7.141242027282715
aF11.371315956115723
aF2.0211281776428223
aF2.505621910095215
aF2.4518349170684814
aF12.793884992599487
aF4.089739799499512
aF5.7573161125183105
aF1.5424890518188477
aF2.1876511573791504
aF7.908837795257568
aF2.3819360733032227
aF2.3594019412994385
aF1.8662300109863281
aF12.46320104598999
aF1.7511789798736572
aF10.064876079559326
aF2.3100759983062744
aF1.6474480628967285
aF2.229825019836426
aF1.1436188220977783
aF1.3255219459533691
aF4.075350999832153
aF2.425363063812256
aF2.3588359355926514
aF5.732708930969238
aF2.013293981552124
aF3.2829182147979736
aF5.565741062164307
aF4.4976279735565186
aF4.2102370262146
aF2.201894998550415
aF1.0337917804718018
aF1.1558301448822021
aF4.682726860046387
aF1.5669951438903809
aF3.28780198097229
aF2.1574199199676514
aF2.690068006515503
aF2.4326040744781494
aF2.287414073944092
aF1.9934940338134766
aF2.247877836227417
aF1.982112169265747
aF1.4797160625457764
aF5.376960039138794
aF1.4605381488800049
aF4.506691932678223
aF6.1244940757751465
aF1.9312829971313477
aF6.097332000732422
aF1.936161994934082
aF1.8307111263275146
aF5.1345720291137695
aF4.2164270877838135
aF1.9469361305236816
aF6.940261125564575
aF1.7657759189605713
aF2.5237040519714355
aF12.474696159362793
aF6.1683030128479
aF2.6263279914855957
aF13.17297101020813
aF3.6179449558258057
aF1.9353151321411133
aF11.689625978469849
aF1.9327149391174316
aF1.8711860179901123
aF2.3824751377105713
aF2.425020217895508
aF2.369346857070923
aF1.889474868774414
aF2.138554811477661
aF1.165215015411377
aF4.13885498046875
aF1.0890212059020996
aF5.118947982788086
aF1.5292201042175293
aF1.9627900123596191
aF3.700930118560791
aF5.640485048294067
aF7.352031946182251
aF1.2960641384124756
aF2.3292150497436523
aF1.4662799835205078
aF12.463841199874878
aF4.705365896224976
aF1.135735034942627
aF3.997056007385254
aF2.346585988998413
aF8.662590026855469
aF4.105356931686401
aF3.5933921337127686
aF12.6284921169281
aF2.738284111022949
aF1.4862430095672607
aF2.4924371242523193
aF4.582466125488281
aF1.8762478828430176
aF1.9575889110565186
aF8.612010955810547
aF2.356395959854126
aF4.134246826171875
aF1.220245122909546
aF1.1700308322906494
aF3.7164011001586914
aF5.949000120162964
aF8.56703495979309
aF1.6540818214416504
aF2.7296738624572754
aF15.61228084564209
aF2.013504981994629
aF1.788985013961792
aF15.458169937133789
aF1.366631031036377
aF1.8306028842926025
aF13.16658091545105
aF1.6502411365509033
aF1.5362601280212402
aF4.707597970962524
aF6.903396129608154
aF9.44192099571228
aF2.22023606300354
aF1.376262903213501
aF1.4593148231506348
aF2.404039144515991
aF2.5089571475982666
aF8.104167938232422
aF2.573859930038452
aF8.911667823791504
aF1.9457669258117676
aF5.14401388168335
aF2.5228769779205322
aF6.64908504486084
aF5.800981044769287
aF2.444554090499878
aF13.39629602432251
aF5.912530899047852
aF8.580873966217041
aF3.738732099533081
aF1.7018189430236816
aF1.9660911560058594
aF3.5930838584899902
aF14.729009866714478
aF1.4531450271606445
aF1.272258996963501
aF4.075309991836548
aF1.8074710369110107
aF4.668548107147217
aF2.5873219966888428
aF3.5531270503997803
aF2.8244948387145996
aF15.742624998092651
aF16.24740505218506
aF4.381814956665039
aF2.3978281021118164
aF6.1338210105896
aF2.2746429443359375
aF1.1049799919128418
aF6.086328983306885
aF8.466888904571533
aF1.86788010597229
aF7.526073932647705
aF4.6372880935668945
aF1.8861050605773926
aF4.797940969467163
aF11.646875143051147
aF7.621977090835571
aF2.406754970550537
aF1.9840850830078125
aF2.256294012069702
aF2.6045000553131104
aF3.571044921875
aF7.705837965011597
aF8.020739078521729
aF15.980894088745117
aF1.9486758708953857
aF1.880836009979248
aF4.97205114364624
aF2.3441131114959717
aF2.3568551540374756
aF2.2513720989227295
aF1.9933249950408936
aF5.692285060882568
aF8.491251945495605
aF1.8565599918365479
aF1.7170920372009277
aF1.885286808013916
aF1.5441138744354248
aF4.169677019119263
aF2.0395021438598633
aF6.517871856689453
aF2.4399499893188477
aF2.015641927719116
aF16.027511835098267
aF1.753735065460205
aF1.7454578876495361
aF5.436497926712036
aF2.008157968521118
aF7.50404691696167
aF2.1493279933929443
aF1.603074073791504
aF4.608368873596191
aF2.053689956665039
aF4.303654909133911
aF4.0065529346466064
aF2.3456990718841553
aF1.6891000270843506
aF8.91954517364502
aF1.598970890045166
aF1.7181308269500732
aF5.60106086730957
aF1.3714869022369385
aF3.6457579135894775
aF4.328845977783203
aF2.3120510578155518
aF1.9234039783477783
aF8.381359815597534
aF2.3806569576263428
aF3.3958590030670166
aF4.032933950424194
aF4.498708963394165
aF2.2372219562530518
aF2.453826904296875
aF1.53000807762146
aF2.858311891555786
aF2.0965070724487305
aF1.2087249755859375
aF1.2828369140625
a.