(lp0
F3.877492904663086
aF1.976914882659912
aF2.0698108673095703
aF2.4189350605010986
aF3.2988390922546387
aF2.825016975402832
aF2.1073429584503174
aF1.9019508361816406
aF2.716434955596924
aF1.75764799118042
aF1.9442009925842285
aF2.252532958984375
aF2.7378909587860107
aF3.349743127822876
aF1.9177100658416748
aF1.7910621166229248
aF2.0028879642486572
aF1.6823639869689941
aF1.606523036956787
aF1.6050548553466797
aF1.6583898067474365
aF4.104838848114014
aF2.5187480449676514
aF2.3303728103637695
aF1.9167039394378662
aF1.7278058528900146
aF1.6943979263305664
aF2.8608450889587402
aF2.189129114151001
aF1.9097650051116943
aF1.629032850265503
aF1.9904930591583252
aF3.5513808727264404
aF2.853593111038208
aF3.0243890285491943
aF3.0072100162506104
aF3.041857957839966
aF2.3894150257110596
aF3.86960506439209
aF1.8008708953857422
aF3.416814088821411
aF1.6086030006408691
aF3.267547845840454
aF2.62267804145813
aF2.1242339611053467
aF1.7363460063934326
aF2.8800079822540283
aF1.932992935180664
aF3.1481258869171143
aF2.138028860092163
aF1.5074739456176758
aF2.2545719146728516
aF3.343885898590088
aF1.8295400142669678
aF2.4434139728546143
aF2.6322669982910156
aF3.0153160095214844
aF1.5135149955749512
aF3.6696979999542236
aF2.8696579933166504
aF2.685633897781372
aF3.419034004211426
aF3.2163121700286865
aF1.644770860671997
aF3.295621156692505
aF3.1375951766967773
aF2.308474063873291
aF2.305544137954712
aF3.0905940532684326
aF3.002495050430298
aF1.7991440296173096
aF2.0758020877838135
aF3.455876111984253
aF1.8969860076904297
aF1.9829769134521484
aF2.646691083908081
aF2.045618772506714
aF1.9808969497680664
aF2.798240900039673
aF2.2525320053100586
aF2.7257649898529053
aF3.6188089847564697
aF2.6092569828033447
aF2.646233081817627
aF3.1689791679382324
aF3.1769039630889893
aF3.4032018184661865
aF3.612910032272339
aF2.677119016647339
aF1.9165921211242676
aF2.5218238830566406
aF2.302823066711426
aF1.8893768787384033
aF2.534752130508423
aF1.8717811107635498
aF2.901592969894409
aF1.3803060054779053
aF1.2438960075378418
aF4.183199882507324
aF2.3497228622436523
aF3.220015048980713
aF1.8916149139404297
aF2.8310751914978027
aF6.072353839874268
aF3.390756130218506
aF2.8480069637298584
aF3.0245461463928223
aF3.0972959995269775
aF7.374281167984009
aF2.920675039291382
aF3.0658509731292725
aF2.9654171466827393
aF2.9426870346069336
aF1.641545057296753
aF2.0594310760498047
aF2.841438055038452
aF3.149117946624756
aF5.2358081340789795
aF6.555769920349121
aF7.4459309577941895
aF5.151496887207031
aF6.452885150909424
aF2.4367079734802246
aF3.3494279384613037
aF2.014158010482788
aF3.638733148574829
aF1.4277520179748535
aF2.268388032913208
aF3.194472074508667
aF3.6357688903808594
aF4.148401975631714
aF1.0594661235809326
aF7.5375988483428955
aF8.64001989364624
aF3.167275905609131
aF1.4019570350646973
aF1.4254050254821777
aF1.4360308647155762
aF2.750430107116699
aF1.5015840530395508
aF4.009114027023315
aF4.652144193649292
aF1.9319219589233398
aF4.6549999713897705
aF3.872990131378174
aF7.244354009628296
aF3.535447120666504
aF2.7841179370880127
aF5.436988830566406
aF3.0923640727996826
aF2.416248083114624
aF1.3143510818481445
aF1.8546440601348877
aF3.5395050048828125
aF3.1274569034576416
aF4.27515983581543
aF1.470923900604248
aF1.4891021251678467
aF1.159559965133667
aF1.359900951385498
aF2.493170976638794
aF3.2049460411071777
aF3.9034039974212646
aF3.304419994354248
aF2.588542938232422
aF1.5331480503082275
aF2.9508349895477295
aF1.184593915939331
aF1.357470989227295
aF7.758311986923218
aF2.6591339111328125
aF3.759456157684326
aF9.444148063659668
aF3.1221818923950195
aF1.538748025894165
aF1.3747589588165283
aF3.4594810009002686
aF7.549196004867554
aF1.592919111251831
aF1.8472669124603271
aF4.436872959136963
aF5.0677080154418945
aF6.880507946014404
aF4.863646984100342
aF8.868853092193604
aF4.0238940715789795
aF2.080519199371338
aF3.8568978309631348
aF3.5550479888916016
aF2.8991479873657227
aF1.654771089553833
aF3.9138619899749756
aF1.8601369857788086
aF1.6824469566345215
aF4.03323221206665
aF1.8365590572357178
aF3.4616191387176514
aF7.121966123580933
aF3.0154170989990234
aF3.5401790142059326
aF2.0742990970611572
aF1.4383912086486816
aF7.560220956802368
aF2.0899150371551514
aF3.143131971359253
aF4.996638059616089
aF2.4872560501098633
aF4.338605165481567
aF3.5518410205841064
aF7.253118991851807
aF9.335041999816895
aF3.683962821960449
aF1.434892177581787
aF9.137187004089355
aF1.1537790298461914
aF5.476634979248047
aF1.3405768871307373
aF8.973925828933716
aF7.492427110671997
aF7.11083197593689
aF9.336431980133057
aF3.747551918029785
aF7.39815092086792
aF7.245069980621338
aF2.629409074783325
aF1.744123935699463
aF1.0343029499053955
aF5.292697906494141
aF1.146003007888794
aF7.563215970993042
aF7.575279951095581
aF8.665689945220947
aF5.987422943115234
aF7.016761064529419
aF3.439116954803467
aF14.780861854553223
aF4.0305609703063965
aF1.5359950065612793
aF10.624093055725098
aF1.342932939529419
aF3.322988986968994
aF1.770117998123169
aF8.484643936157227
aF3.697382926940918
aF1.681563138961792
aF4.324475049972534
aF7.911256790161133
aF7.481109857559204
aF4.471198081970215
aF4.348822116851807
aF3.085005044937134
aF4.964640855789185
aF8.097332954406738
aF7.374614000320435
aF7.445327997207642
aF4.630495071411133
aF4.392579078674316
aF5.94909405708313
aF3.2470169067382812
aF1.6071720123291016
aF1.8503940105438232
aF7.139371871948242
aF5.647218942642212
aF7.541337966918945
aF3.9446909427642822
aF4.043140888214111
aF7.592104911804199
aF7.316974878311157
aF4.058695077896118
aF1.8517069816589355
aF1.4851369857788086
aF3.4396369457244873
aF7.00116491317749
aF3.89621901512146
aF2.6446290016174316
aF6.668166160583496
aF4.22498893737793
aF6.331151008605957
aF6.5217649936676025
aF17.563940048217773
aF6.380650997161865
aF7.287902116775513
aF11.926056861877441
aF1.4487910270690918
aF2.9599671363830566
aF3.2569029331207275
aF1.4299139976501465
aF7.235238075256348
aF10.522175073623657
aF25.059725046157837
aF6.262862920761108
aF6.844910144805908
aF2.7295029163360596
aF20.650886058807373
aF8.631824970245361
aF1.9628031253814697
aF11.603950023651123
aF7.8300042152404785
aF3.6366989612579346
aF2.506740093231201
aF3.4443211555480957
aF6.842154026031494
aF7.960965156555176
aF40.57955718040466
aF5.403893947601318
aF1.8182299137115479
aF17.533459901809692
aF3.9020979404449463
aF9.618149042129517
aF7.747915983200073
aF7.734493017196655
aF31.947559118270874
aF17.144973039627075
aF1.711205005645752
aF1.9000470638275146
aF12.362669944763184
aF7.564509153366089
aF7.565992116928101
aF3.2512941360473633
aF7.5259130001068115
aF3.139353036880493
aF24.239568948745728
aF11.634697914123535
aF14.919128179550171
aF34.72533202171326
aF40.822715044021606
aF29.732798099517822
aF9.03200101852417
aF19.54675579071045
aF7.935775995254517
aF30.506286144256592
aF7.66081690788269
aF4.476853847503662
aF1.367609977722168
aF8.410959005355835
aF7.248546123504639
aF30.036297082901
aF30.963263034820557
aF48.18043303489685
aF8.372997045516968
aF5.240140914916992
aF2.6030349731445312
aF13.136080980300903
aF31.815892934799194
aF8.73819899559021
aF6.677165985107422
aF16.07894992828369
aF41.02836990356445
aF8.129316091537476
aF41.84116005897522
aF24.95316505432129
aF1.4563398361206055
aF41.12280607223511
aF4.659065008163452
aF7.142513990402222
aF8.331670045852661
aF5.472957134246826
aF3.8249869346618652
aF48.14874315261841
aF8.245601892471313
aF4.553900957107544
aF19.73701500892639
aF4.735423803329468
aF8.579447984695435
aF2.5002801418304443
aF2.4257619380950928
aF6.356326103210449
aF41.54087996482849
aF11.227037906646729
aF1.865250825881958
aF2.383855104446411
aF26.030014038085938
aF2.3658499717712402
aF7.003635883331299
aF4.3600029945373535
aF1.3795320987701416
aF32.76990103721619
aF31.811081171035767
aF7.653546094894409
aF1.2618739604949951
aF1.977856159210205
aF11.117089986801147
aF3.3746120929718018
aF8.129924058914185
aF14.022710084915161
aF20.858541011810303
aF2.9029300212860107
aF3.7494192123413086
aF17.136648893356323
aF8.731478929519653
aF3.171143054962158
aF7.655133962631226
aF7.386539936065674
aF8.26888108253479
aF1.6866741180419922
aF1.5633420944213867
aF1.3848650455474854
aF8.57900094985962
aF1.8645658493041992
aF1.4210269451141357
aF1.423224925994873
aF1.8279588222503662
aF7.531466960906982
aF1.8335201740264893
aF2.5553791522979736
aF20.652202129364014
aF3.465505838394165
aF1.1281330585479736
aF7.292817831039429
aF7.53770112991333
aF2.508496046066284
aF6.927627086639404
aF15.018521070480347
aF6.528347969055176
aF1.3894989490509033
aF7.91233491897583
aF21.20542597770691
aF2.4958341121673584
aF2.0222208499908447
aF2.4688830375671387
aF5.588820934295654
aF20.649079084396362
aF5.219602108001709
aF3.4324848651885986
aF5.699596166610718
aF20.00080394744873
aF32.236377000808716
aF6.641631126403809
aF3.8754360675811768
aF1.448707103729248
aF1.133279800415039
aF2.566340923309326
aF2.3253438472747803
aF1.8313701152801514
aF1.9515230655670166
aF1.057539939880371
aF1.3801229000091553
aF1.0608899593353271
aF1.376554012298584
aF1.2803840637207031
aF2.9563357830047607
aF2.888936996459961
aF3.1986169815063477
aF3.116185188293457
aF2.461034059524536
aF1.2638161182403564
aF1.54970383644104
aF2.945557117462158
aF2.9026598930358887
aF7.1016011238098145
aF1.8025710582733154
aF3.182421922683716
aF2.972869873046875
aF2.884065866470337
aF2.973046064376831
aF3.047018051147461
aF3.0668039321899414
aF3.159938097000122
aF3.0515081882476807
aF2.8763411045074463
aF1.5655598640441895
aF3.351140022277832
aF2.97183895111084
aF3.1342740058898926
aF1.4250659942626953
aF2.8432199954986572
aF3.1972479820251465
aF2.9298698902130127
aF2.8393490314483643
aF2.0500690937042236
aF2.259654998779297
aF2.939141035079956
aF2.9132800102233887
aF8.174447059631348
aF2.3062760829925537
aF6.9526989459991455
aF2.2443079948425293
aF2.4269821643829346
aF1.0795950889587402
aF1.4600720405578613
aF1.3573219776153564
aF2.7390620708465576
aF2.6090919971466064
aF2.0369060039520264
aF2.42225980758667
aF1.6091539859771729
aF1.0372319221496582
aF2.4177420139312744
aF3.153714895248413
aF2.23262095451355
aF2.019134998321533
aF1.5363340377807617
aF3.030285120010376
aF2.7302489280700684
aF8.443256855010986
aF5.059316873550415
aF2.5322561264038086
aF1.071061134338379
aF2.8297171592712402
aF3.1702499389648438
aF2.8344180583953857
aF2.7801849842071533
aF2.8514630794525146
aF3.0332090854644775
aF2.0027048587799072
aF3.2310121059417725
aF2.977595090866089
aF2.852707862854004
aF3.16560697555542
aF2.731173038482666
aF2.733180046081543
aF2.904521942138672
aF2.8606598377227783
aF1.7143230438232422
aF3.1706671714782715
aF2.6720011234283447
aF2.8921329975128174
aF2.8687801361083984
aF2.9071691036224365
aF2.908604145050049
aF2.2555930614471436
aF2.303335189819336
aF2.8352439403533936
aF2.0147528648376465
aF2.7076339721679688
aF2.793009042739868
aF2.905742883682251
aF2.5385899543762207
aF2.900620937347412
aF2.1536128520965576
aF2.139803886413574
aF1.8612098693847656
aF2.7306811809539795
aF2.856168031692505
aF2.711639165878296
aF2.9024658203125
aF2.4315648078918457
aF2.8227460384368896
aF2.894791841506958
aF2.324145793914795
aF4.390628814697266
aF2.8422629833221436
aF2.9393961429595947
aF3.025096893310547
aF2.929910898208618
aF2.886770009994507
aF2.841171979904175
aF2.1241848468780518
aF1.1545140743255615
aF2.089337110519409
aF2.546231985092163
aF2.8484010696411133
aF2.9085440635681152
aF2.848763942718506
aF2.606093168258667
aF3.2313451766967773
aF3.3408758640289307
aF2.6409618854522705
aF2.8624660968780518
aF2.862224817276001
aF2.8639349937438965
aF2.855376958847046
aF2.891403913497925
aF2.8909032344818115
aF1.2473690509796143
aF2.8356809616088867
aF3.1381618976593018
aF2.879899024963379
aF2.8483190536499023
aF2.749083995819092
aF2.7549750804901123
aF3.025934934616089
aF2.8178398609161377
aF3.0359320640563965
aF2.1306140422821045
aF3.063953161239624
aF3.1991310119628906
aF3.6749489307403564
aF2.775101900100708
aF2.316758871078491
aF2.5989317893981934
aF3.2043089866638184
aF2.8404130935668945
aF2.839308977127075
aF2.098254919052124
aF3.1994869709014893
aF2.8964459896087646
aF2.7561471462249756
aF2.731145143508911
aF2.662637948989868
aF2.8982760906219482
aF2.8665549755096436
aF2.86427903175354
aF2.891883134841919
aF2.7581958770751953
aF2.879837989807129
aF2.840059995651245
aF2.9264869689941406
aF3.1600430011749268
aF2.9111149311065674
aF2.8998260498046875
aF1.9393088817596436
aF2.6476058959960938
aF2.843744993209839
aF1.5327389240264893
aF2.769514799118042
aF2.904654026031494
aF2.4619929790496826
aF2.757775068283081
aF2.434438943862915
aF2.786550998687744
aF2.794203042984009
aF3.045811891555786
aF2.7950961589813232
aF3.0997822284698486
aF2.9270670413970947
aF1.5414059162139893
aF2.742074966430664
aF2.8556008338928223
aF2.78174090385437
aF2.669363021850586
aF2.685002088546753
aF2.714108943939209
aF2.416149139404297
aF2.689795970916748
aF2.7367351055145264
aF5.387913942337036
aF1.636620044708252
aF2.8404979705810547
aF1.5981969833374023
aF4.548173189163208
aF1.1162610054016113
aF1.3810110092163086
aF4.294499158859253
aF1.371304988861084
aF1.4458250999450684
aF4.7707679271698
aF1.0636770725250244
aF1.9358630180358887
aF5.575357913970947
aF1.9892628192901611
aF7.26674485206604
aF4.943508148193359
aF1.011408805847168
aF1.8432190418243408
aF8.01517915725708
aF2.614912986755371
aF1.1307158470153809
aF1.4757311344146729
aF1.840541124343872
aF4.357676982879639
aF1.7616779804229736
aF7.687312841415405
aF1.521562099456787
aF4.375864028930664
aF3.870471954345703
aF0.9870131015777588
aF1.4032928943634033
aF6.830997943878174
aF1.7834501266479492
aF1.4341230392456055
aF5.067211866378784
aF1.4862949848175049
aF1.4309170246124268
aF1.6271770000457764
aF2.8976449966430664
aF3.8586840629577637
aF4.475023031234741
aF1.1195461750030518
aF1.3887131214141846
aF3.896732807159424
aF1.8314099311828613
aF2.1190521717071533
aF3.7914819717407227
aF4.102118968963623
aF1.3371448516845703
aF5.832366943359375
aF1.2548940181732178
aF1.1813499927520752
aF3.9094038009643555
aF1.6132559776306152
aF4.034485101699829
aF1.625619888305664
aF1.2819669246673584
aF3.9674320220947266
aF1.6656529903411865
aF1.6780660152435303
aF2.8535730838775635
aF3.36114501953125
aF4.062118053436279
aF1.4399640560150146
aF9.420091152191162
aF1.0882339477539062
aF1.2524371147155762
aF8.143393993377686
aF9.163604021072388
aF1.0351130962371826
aF1.0504581928253174
aF1.2013049125671387
aF3.886155843734741
aF7.617115020751953
aF4.259790897369385
aF2.948643922805786
aF2.7577850818634033
aF7.221426010131836
aF2.346130132675171
aF2.5915088653564453
aF3.3157119750976562
aF2.2659049034118652
aF2.1271700859069824
aF1.0676090717315674
aF2.0864858627319336
aF1.107245922088623
aF1.1091339588165283
aF1.8605091571807861
aF1.06209397315979
aF2.0614678859710693
aF1.0807180404663086
aF1.9153690338134766
aF1.46803879737854
aF1.5073859691619873
aF2.24104905128479
aF1.513702154159546
aF1.4612360000610352
aF1.531785011291504
aF1.9681541919708252
aF2.7089929580688477
aF2.7321560382843018
aF5.406790018081665
aF3.057647943496704
aF2.7171108722686768
aF3.0481600761413574
aF2.6342451572418213
aF2.7132890224456787
aF7.190881013870239
aF3.3215880393981934
aF2.181579828262329
aF1.5248899459838867
aF2.7242941856384277
aF2.001878023147583
aF1.6617939472198486
aF1.7113652229309082
aF3.019968032836914
aF2.85031795501709
aF2.5392069816589355
aF2.8366119861602783
aF3.155141830444336
aF3.002779960632324
aF3.089679002761841
aF1.6457149982452393
aF2.205487012863159
aF2.552258014678955
aF1.5173280239105225
aF2.123183012008667
aF1.8373990058898926
aF2.123405933380127
aF2.6407320499420166
aF6.225021839141846
aF1.271251916885376
aF2.5412299633026123
aF0.9843771457672119
aF1.9819281101226807
aF2.018296003341675
aF4.9246039390563965
aF2.0063400268554688
aF2.7392101287841797
aF2.3100779056549072
aF2.726940155029297
aF8.864143133163452
aF2.2360999584198
aF1.078597068786621
aF1.835561990737915
aF9.123242139816284
aF2.0470190048217773
aF1.1636857986450195
aF9.178224086761475
aF1.966874122619629
aF1.39668607711792
aF8.746421098709106
aF2.265293836593628
aF1.5231359004974365
aF2.8007640838623047
aF2.8329570293426514
aF2.981778144836426
aF2.1420371532440186
aF8.203711986541748
aF1.2280499935150146
aF1.350212812423706
aF2.722977876663208
aF2.744188070297241
aF2.8371059894561768
aF8.168500900268555
aF1.8321850299835205
aF2.55503511428833
aF2.7107229232788086
aF2.858994960784912
aF2.8450939655303955
aF8.960731029510498
aF2.015017032623291
aF2.9997799396514893
aF2.754183053970337
aF8.255970001220703
aF1.247847080230713
aF1.4799630641937256
aF9.49634599685669
aF1.156477928161621
aF1.5985801219940186
aF9.159509897232056
aF3.031144857406616
aF1.2563719749450684
aF1.7231738567352295
aF2.244847059249878
aF1.084076166152954
aF2.4110281467437744
aF1.0501558780670166
aF1.8108890056610107
aF2.8260438442230225
aF9.055576086044312
aF1.8690061569213867
aF2.266072988510132
aF1.8604371547698975
aF1.5473661422729492
aF1.8398008346557617
aF2.6435739994049072
aF9.194042205810547
aF1.424260139465332
aF1.219480037689209
aF7.941847801208496
aF1.7068281173706055
aF2.7184669971466064
aF2.1183440685272217
aF1.163789987564087
aF2.0175719261169434
aF2.76499605178833
aF4.380720138549805
aF1.1980090141296387
aF2.8362631797790527
aF9.204815864562988
aF1.9577789306640625
aF2.309018135070801
aF3.1007840633392334
aF2.6394717693328857
aF2.981951951980591
aF2.7966389656066895
aF8.311102151870728
aF1.0242218971252441
aF1.048288106918335
aF8.063652038574219
aF1.2515339851379395
aF4.688956022262573
aF1.5318260192871094
aF4.473449945449829
aF1.226464033126831
aF7.449536085128784
aF1.0475590229034424
aF1.7055060863494873
aF2.824120044708252
aF4.317677974700928
aF0.9903860092163086
aF1.2889289855957031
aF2.910588026046753
aF4.277266025543213
aF1.2126309871673584
aF4.1531829833984375
aF1.1616971492767334
aF8.047928094863892
aF0.9489700794219971
aF4.326698064804077
aF1.0842828750610352
aF2.720649003982544
aF1.8602399826049805
aF2.9201769828796387
aF4.1796510219573975
aF1.7054071426391602
aF4.085552215576172
aF1.1538701057434082
aF1.8214612007141113
aF2.92120099067688
aF5.041914939880371
aF1.1168570518493652
aF4.559751987457275
aF2.2848050594329834
aF6.762065887451172
aF2.36893892288208
aF2.4269778728485107
aF1.1007871627807617
aF2.272784948348999
aF1.0887010097503662
aF1.490095853805542
aF2.2071990966796875
aF2.308323860168457
aF1.1200690269470215
aF1.3734350204467773
aF2.627289056777954
aF2.648160934448242
aF2.292574882507324
aF2.3072760105133057
aF1.1276140213012695
aF2.1422348022460938
aF2.268714189529419
aF1.0873210430145264
aF2.692723035812378
aF4.755741834640503
aF2.425271987915039
aF2.4535470008850098
aF2.246037006378174
aF2.258255958557129
aF2.6121368408203125
aF2.94726300239563
aF4.444939136505127
aF2.3845181465148926
aF6.850693941116333
aF2.469693899154663
aF1.1144731044769287
aF6.125433921813965
aF1.556368112564087
aF2.511277914047241
aF2.6892518997192383
aF4.561213970184326
aF1.2585301399230957
aF4.102036952972412
aF1.3313169479370117
aF4.276373863220215
aF2.2654359340667725
aF2.301949977874756
aF14.85599398612976
aF2.6924281120300293
aF14.922791004180908
aF1.1339550018310547
aF2.516240119934082
aF2.1790401935577393
aF2.79197096824646
aF2.5612058639526367
aF1.4191901683807373
aF2.2706501483917236
aF1.1126351356506348
aF2.255632162094116
aF2.6816840171813965
aF2.128741979598999
aF1.7995378971099854
aF4.462141036987305
aF1.0598299503326416
aF1.1297211647033691
aF1.9245619773864746
aF4.772789001464844
aF1.3005938529968262
aF1.3047618865966797
aF1.1892259120941162
aF5.4399940967559814
aF1.7146739959716797
aF2.7233469486236572
aF4.402868986129761
aF1.5765950679779053
aF2.444844961166382
aF1.1187939643859863
aF1.062391996383667
aF1.048759937286377
aF2.416050910949707
aF1.5258090496063232
aF3.1541059017181396
aF1.0809850692749023
aF4.461138010025024
aF1.1088931560516357
aF2.7166311740875244
aF21.12825298309326
aF4.033895015716553
aF6.96307897567749
aF2.6894500255584717
aF3.829385995864868
aF2.326066017150879
aF0.9327499866485596
aF1.6627790927886963
aF2.668332099914551
aF2.731152057647705
aF1.6629581451416016
aF2.395172119140625
aF1.9218850135803223
aF6.9070680141448975
aF6.922818899154663
aF3.4679479598999023
aF6.842127084732056
aF2.2988600730895996
aF6.562943935394287
aF2.9752120971679688
aF1.4900779724121094
aF3.674514055252075
aF7.044852018356323
aF15.95406198501587
aF1.45802903175354
aF2.2737669944763184
aF6.668209075927734
aF29.428647994995117
aF2.378368854522705
aF1.1942870616912842
aF2.4933669567108154
aF2.172322988510132
aF2.2882049083709717
aF2.718514919281006
aF6.836058139801025
aF7.434551000595093
aF3.873745918273926
aF6.714787006378174
aF6.827700853347778
aF6.886961936950684
aF3.4467339515686035
aF6.065142869949341
aF6.720335006713867
aF2.5576159954071045
aF4.320280075073242
aF2.7359941005706787
aF41.117265939712524
aF7.006108999252319
aF7.124811172485352
aF3.197857141494751
aF2.5465760231018066
aF6.8518688678741455
aF7.15591287612915
aF7.136244058609009
aF5.024602890014648
aF8.668807983398438
aF7.013895034790039
aF7.415678977966309
aF3.827241897583008
aF7.518714904785156
aF7.317396879196167
aF32.123085021972656
aF2.3920929431915283
aF1.3930160999298096
aF2.3711140155792236
aF2.907212972640991
aF2.3238770961761475
aF1.8292930126190186
aF7.211760997772217
aF2.740006923675537
aF3.0587589740753174
aF4.615660905838013
aF6.817399024963379
aF7.006453037261963
aF4.627346038818359
aF7.499138116836548
aF8.755507946014404
aF7.06095814704895
aF3.994046926498413
aF2.8481709957122803
aF3.9967851638793945
aF8.766567945480347
aF8.952253818511963
aF7.466878890991211
aF8.687934875488281
aF8.937972068786621
aF16.372778177261353
aF38.721527099609375
aF1.1339468955993652
aF5.524507999420166
aF39.91565012931824
aF16.608731031417847
aF2.601088047027588
aF2.9204578399658203
aF2.908690929412842
aF8.721220970153809
aF4.62968111038208
aF7.541622161865234
aF6.947543144226074
aF3.6931731700897217
aF8.96033787727356
aF14.799883842468262
aF7.058182001113892
aF3.8612470626831055
aF8.81659197807312
aF9.024490118026733
aF8.783148050308228
aF39.3672661781311
aF7.362429857254028
aF8.757670879364014
aF7.119662046432495
aF13.210789918899536
aF8.728132009506226
aF8.671050071716309
aF40.05139398574829
aF8.66220998764038
aF7.143095016479492
aF10.928445100784302
aF19.952391147613525
aF8.80524492263794
aF7.363667011260986
aF7.2204461097717285
aF11.487510919570923
aF8.993803977966309
aF8.718410015106201
aF9.1775381565094
a.